target datalayout = "e-m:e-p270:32:32-p271:32:32-p272:64:64-i64:64-i128:128-f80:128-n8:16:32:64-S128"
target triple = "x86_64-pc-linux-gnu"

; Function Attrs: nounwind uwtable
define internal i32 @H5P__lacc_elink_fapl_cmp(ptr noundef %0, ptr noundef %1, i64 noundef %2) #0 {
  %4 = alloca ptr, align 8
  %5 = alloca ptr, align 8
  %6 = alloca i64, align 8
  %7 = alloca ptr, align 8
  %8 = alloca ptr, align 8
  %9 = alloca ptr, align 8
  %10 = alloca ptr, align 8
  %11 = alloca i32, align 4
  %12 = alloca i32, align 4
  store ptr %0, ptr %4, align 8
  store ptr %1, ptr %5, align 8
  store i64 %2, ptr %6, align 8
  %13 = load ptr, ptr %4, align 8
  store ptr %13, ptr %7, align 8
  %14 = load ptr, ptr %5, align 8
  store ptr %14, ptr %8, align 8
  store i32 0, ptr %11, align 4
  %15 = load ptr, ptr %7, align 8
  %16 = load i64, ptr %15, align 8
  %17 = icmp eq i64 %16, 0
  br i1 %17, label %18, label %25

18:                                               ; preds = %3
  %19 = load ptr, ptr %8, align 8
  %20 = load i64, ptr %19, align 8
  %21 = icmp sgt i64 %20, 0
  br i1 %21, label %22, label %25

22:                                               ; preds = %18
  br label %23

23:                                               ; preds = %22
  store i32 1, ptr %11, align 4
  br label %71

24:                                               ; No predecessors!
  br label %25

25:                                               ; preds = %24, %18, %3
  %26 = load ptr, ptr %7, align 8
  %27 = load i64, ptr %26, align 8
  %28 = icmp sgt i64 %27, 0
  br i1 %28, label %29, label %36

29:                                               ; preds = %25
  %30 = load ptr, ptr %8, align 8
  %31 = load i64, ptr %30, align 8
  %32 = icmp eq i64 %31, 0
  br i1 %32, label %33, label %36

33:                                               ; preds = %29
  br label %34

34:                                               ; preds = %33
  store i32 -1, ptr %11, align 4
  br label %71

35:                                               ; No predecessors!
  br label %36

36:                                               ; preds = %35, %29, %25
  %37 = load ptr, ptr %7, align 8
  %38 = load i64, ptr %37, align 8
  %39 = call ptr @H5I_object(i64 noundef %38)
  store ptr %39, ptr %9, align 8
  %40 = load ptr, ptr %8, align 8
  %41 = load i64, ptr %40, align 8
  %42 = call ptr @H5I_object(i64 noundef %41)
  store ptr %42, ptr %10, align 8
  %43 = load ptr, ptr %9, align 8
  %44 = icmp eq ptr %43, null
  br i1 %44, label %45, label %51

45:                                               ; preds = %36
  %46 = load ptr, ptr %10, align 8
  %47 = icmp ne ptr %46, null
  br i1 %47, label %48, label %51

48:                                               ; preds = %45
  br label %49

49:                                               ; preds = %48
  store i32 1, ptr %11, align 4
  br label %71

50:                                               ; No predecessors!
  br label %51

51:                                               ; preds = %50, %45, %36
  %52 = load ptr, ptr %9, align 8
  %53 = icmp ne ptr %52, null
  br i1 %53, label %54, label %60

54:                                               ; preds = %51
  %55 = load ptr, ptr %10, align 8
  %56 = icmp eq ptr %55, null
  br i1 %56, label %57, label %60

57:                                               ; preds = %54
  br label %58

58:                                               ; preds = %57
  store i32 -1, ptr %11, align 4
  br label %71

59:                                               ; No predecessors!
  br label %60

60:                                               ; preds = %59, %54, %51
  %61 = load ptr, ptr %9, align 8
  %62 = icmp ne ptr %61, null
  br i1 %62, label %63, label %70

63:                                               ; preds = %60
  %64 = load ptr, ptr %10, align 8
  %65 = icmp ne ptr %64, null
  br i1 %65, label %66, label %70

66:                                               ; preds = %63
  %67 = load ptr, ptr %9, align 8
  %68 = load ptr, ptr %10, align 8
  %69 = call i32 @H5P__cmp_plist(ptr noundef %67, ptr noundef %68, ptr noundef %11)
  store i32 %69, ptr %12, align 4
  br label %70

70:                                               ; preds = %66, %63, %60
  br label %71

71:                                               ; preds = %70, %58, %49, %34, %23
  %72 = load i32, ptr %11, align 4
  ret i32 %72
}