; Function Attrs: nounwind uwtable
define internal i32 @H5P__lacc_elink_fapl_cmp(ptr noundef readonly captures(none) %0, ptr noundef readonly captures(none) %1, i64 %2) #0 {
  %4 = alloca i32, align 4
  store i32 0, ptr %4, align 4
  %5 = load i64, ptr %0, align 8
  %6 = icmp eq i64 %5, 0
  br i1 %6, label %7, label %10

7:                                                ; preds = %3
  %8 = load i64, ptr %1, align 8
  %9 = icmp sgt i64 %8, 0
  br i1 %9, label %26, label %.thread

10:                                               ; preds = %3
  %11 = icmp sgt i64 %5, 0
  br i1 %11, label %12, label %.thread

12:                                               ; preds = %10
  %13 = load i64, ptr %1, align 8
  %14 = icmp eq i64 %13, 0
  br i1 %14, label %26, label %.thread

.thread:                                          ; preds = %7, %12, %10
  %15 = tail call ptr @H5I_object(i64 noundef %5) #8
  %16 = load i64, ptr %1, align 8
  %17 = tail call ptr @H5I_object(i64 noundef %16) #8
  %18 = icmp eq ptr %15, null
  %19 = icmp ne ptr %17, null
  %or.cond = select i1 %18, i1 %19, i1 false
  br i1 %or.cond, label %26, label %20

20:                                               ; preds = %.thread
  %21 = icmp ne ptr %15, null
  %22 = icmp eq ptr %17, null
  %or.cond3 = select i1 %21, i1 %22, i1 false
  br i1 %or.cond3, label %26, label %23

23:                                               ; preds = %20
  %or.cond5 = select i1 %21, i1 %19, i1 false
  br i1 %or.cond5, label %24, label %26

24:                                               ; preds = %23
  %25 = call i32 @H5P__cmp_plist(ptr noundef nonnull %15, ptr noundef nonnull %17, ptr noundef nonnull %4) #8
  %.pre = load i32, ptr %4, align 4
  br label %26

26:                                               ; preds = %20, %.thread, %12, %7, %23, %24
  %27 = phi i32 [ 0, %23 ], [ %.pre, %24 ], [ 1, %7 ], [ -1, %12 ], [ 1, %.thread ], [ -1, %20 ]
  ret i32 %27
}